target datalayout = "e-m:e-p270:32:32-p271:32:32-p272:64:64-i64:64-i128:128-f80:128-n8:16:32:64-S128"
target triple = "x86_64-pc-linux-gnu"

%struct.darktable_t = type { %struct.dt_codepath_t, i32, i32, ptr, ptr, ptr, ptr, ptr, ptr, ptr, ptr, ptr, ptr, ptr, ptr, ptr, ptr, ptr, ptr, ptr, ptr, ptr, ptr, ptr, ptr, ptr, ptr, ptr, ptr, ptr, [64 x %struct.dt_pthread_mutex_t], %struct.dt_pthread_mutex_t, %struct.dt_pthread_mutex_t, %struct.dt_pthread_mutex_t, %struct.dt_pthread_mutex_t, %struct.dt_pthread_mutex_t, ptr, ptr, ptr, ptr, ptr, ptr, ptr, ptr, ptr, ptr, ptr, ptr, ptr, %struct.dt_lua_state_t, ptr, double, ptr, i32, [47 x i32], i32, i32, ptr, ptr, %struct.dt_sys_resources_t, %struct.dt_backthumb_t, %struct.dt_gimp_t }
%struct.dt_codepath_t = type { i8, [3 x i8] }
%struct.dt_pthread_mutex_t = type { %union.pthread_mutex_t }
%union.pthread_mutex_t = type { %struct.__pthread_mutex_s }
%struct.__pthread_mutex_s = type { i32, i32, i32, i32, i32, i16, i16, %struct.__pthread_internal_list }
%struct.__pthread_internal_list = type { ptr, ptr }
%struct.dt_lua_state_t = type { i32 }
%struct.dt_sys_resources_t = type { i64, i64, ptr, ptr, i32 }
%struct.dt_backthumb_t = type { double, double, i32, i32, i32, i32 }
%struct.dt_gimp_t = type { i32, ptr, ptr, i32, i32 }
%struct._GdkRGBA = type { double, double, double, double }
%struct._GtkBorder = type { i16, i16, i16, i16 }
%struct.dt_bauhaus_t = type { ptr, %struct.dt_bauhaus_popup_t, ptr, float, float, i32, i32, float, [180 x i8], i32, i32, [2 x i32], i32, ptr, ptr, float, float, float, float, float, ptr, ptr, i32, i32, i32, %struct._GdkRGBA, %struct._GdkRGBA, %struct._GdkRGBA, %struct._GdkRGBA, %struct._GdkRGBA, %struct._GdkRGBA, %struct._GdkRGBA, %struct._GdkRGBA, %struct._GdkRGBA, %struct._GdkRGBA, %struct._GdkRGBA, %struct._GdkRGBA, %struct._GdkRGBA, %struct._GdkRGBA, %struct._GdkRGBA, [3 x %struct._GdkRGBA], [5 x %struct._GdkRGBA] }
%struct.dt_bauhaus_popup_t = type { ptr, ptr, %struct._GtkBorder, %struct._cairo_rectangle_int, i32, i32, i32 }
%struct._cairo_rectangle_int = type { i32, i32, i32, i32 }
%struct._GTypeClass = type { i64 }
%struct._GtkWidgetClass = type { %struct._GObjectClass, i32, ptr, ptr, ptr, ptr, ptr, ptr, ptr, ptr, ptr, ptr, ptr, ptr, ptr, ptr, ptr, ptr, ptr, ptr, ptr, ptr, ptr, ptr, ptr, ptr, ptr, ptr, ptr, ptr, ptr, ptr, ptr, ptr, ptr, ptr, ptr, ptr, ptr, ptr, ptr, ptr, ptr, ptr, ptr, ptr, ptr, ptr, ptr, ptr, ptr, ptr, ptr, ptr, ptr, ptr, ptr, ptr, ptr, ptr, ptr, ptr, ptr, ptr, ptr, ptr, ptr, ptr, ptr, ptr, ptr, ptr, ptr, ptr, ptr, ptr, ptr, ptr, ptr, ptr, ptr, ptr, ptr, ptr, ptr, ptr, ptr }
%struct._GObjectClass = type { %struct._GTypeClass, ptr, ptr, ptr, ptr, ptr, ptr, ptr, ptr, ptr, i64, [6 x ptr] }

@darktable = external global %struct.darktable_t, align 8
@.str.44 = private unnamed_addr constant [13 x i8] c"quad-pressed\00", align 1
@.str.47 = private unnamed_addr constant [14 x i8] c"value-changed\00", align 1
@dt_bh_parent_class = internal global ptr null, align 8
@DtBauhausWidget_private_offset = internal global i32 0, align 4

; Function Attrs: nounwind uwtable
define internal void @dt_bh_class_init(ptr noundef %0) #0 {
  %2 = alloca ptr, align 8
  %3 = alloca ptr, align 8
  store ptr %0, ptr %2, align 8, !tbaa !32
  %4 = load ptr, ptr %2, align 8, !tbaa !32
  %5 = getelementptr inbounds nuw %struct._GTypeClass, ptr %4, i32 0, i32 0
  %6 = load i64, ptr %5, align 8, !tbaa !245
  %7 = call i32 (ptr, i64, i32, i32, ptr, ptr, ptr, i64, i32, ...) @g_signal_new(ptr noundef @.str.47, i64 noundef %6, i32 noundef 2, i32 noundef 0, ptr noundef null, ptr noundef null, ptr noundef @g_cclosure_marshal_VOID__VOID, i64 noundef 4, i32 noundef 0)
  %8 = load ptr, ptr getelementptr inbounds nuw (%struct.darktable_t, ptr @darktable, i32 0, i32 17), align 8, !tbaa !78
  %9 = getelementptr inbounds nuw %struct.dt_bauhaus_t, ptr %8, i32 0, i32 11
  %10 = getelementptr inbounds [2 x i32], ptr %9, i64 0, i64 0
  store i32 %7, ptr %10, align 8, !tbaa !13
  %11 = load ptr, ptr %2, align 8, !tbaa !32
  %12 = getelementptr inbounds nuw %struct._GTypeClass, ptr %11, i32 0, i32 0
  %13 = load i64, ptr %12, align 8, !tbaa !245
  %14 = call i32 (ptr, i64, i32, i32, ptr, ptr, ptr, i64, i32, ...) @g_signal_new(ptr noundef @.str.44, i64 noundef %13, i32 noundef 2, i32 noundef 0, ptr noundef null, ptr noundef null, ptr noundef @g_cclosure_marshal_VOID__VOID, i64 noundef 4, i32 noundef 0)
  %15 = load ptr, ptr getelementptr inbounds nuw (%struct.darktable_t, ptr @darktable, i32 0, i32 17), align 8, !tbaa !78
  %16 = getelementptr inbounds nuw %struct.dt_bauhaus_t, ptr %15, i32 0, i32 11
  %17 = getelementptr inbounds [2 x i32], ptr %16, i64 0, i64 1
  store i32 %14, ptr %17, align 4, !tbaa !13
  call void @llvm.lifetime.start.p0(i64 8, ptr %3) #13
  %18 = load ptr, ptr %2, align 8, !tbaa !32
  %19 = call i64 @gtk_widget_get_type() #14
  %20 = call ptr @g_type_check_class_cast(ptr noundef %18, i64 noundef %19)
  store ptr %20, ptr %3, align 8, !tbaa !296
  %21 = load ptr, ptr %3, align 8, !tbaa !296
  %22 = getelementptr inbounds nuw %struct._GtkWidgetClass, ptr %21, i32 0, i32 20
  store ptr @_widget_draw, ptr %22, align 8, !tbaa !298
  %23 = load ptr, ptr %3, align 8, !tbaa !296
  %24 = getelementptr inbounds nuw %struct._GtkWidgetClass, ptr %23, i32 0, i32 34
  store ptr @_widget_scroll, ptr %24, align 8, !tbaa !302
  %25 = load ptr, ptr %3, align 8, !tbaa !296
  %26 = getelementptr inbounds nuw %struct._GtkWidgetClass, ptr %25, i32 0, i32 38
  store ptr @_widget_key_press, ptr %26, align 8, !tbaa !303
  %27 = load ptr, ptr %3, align 8, !tbaa !296
  %28 = getelementptr inbounds nuw %struct._GtkWidgetClass, ptr %27, i32 0, i32 32
  store ptr @_widget_button_press, ptr %28, align 8, !tbaa !304
  %29 = load ptr, ptr %3, align 8, !tbaa !296
  %30 = getelementptr inbounds nuw %struct._GtkWidgetClass, ptr %29, i32 0, i32 33
  store ptr @_widget_button_release, ptr %30, align 8, !tbaa !305
  %31 = load ptr, ptr %3, align 8, !tbaa !296
  %32 = getelementptr inbounds nuw %struct._GtkWidgetClass, ptr %31, i32 0, i32 35
  store ptr @_widget_motion_notify, ptr %32, align 8, !tbaa !306
  %33 = load ptr, ptr %3, align 8, !tbaa !296
  %34 = getelementptr inbounds nuw %struct._GtkWidgetClass, ptr %33, i32 0, i32 24
  store ptr @_widget_get_preferred_width, ptr %34, align 8, !tbaa !307
  %35 = load ptr, ptr %3, align 8, !tbaa !296
  %36 = getelementptr inbounds nuw %struct._GtkWidgetClass, ptr %35, i32 0, i32 22
  store ptr @_widget_get_preferred_height, ptr %36, align 8, !tbaa !308
  %37 = load ptr, ptr %3, align 8, !tbaa !296
  %38 = getelementptr inbounds nuw %struct._GtkWidgetClass, ptr %37, i32 0, i32 40
  store ptr @_widget_enter_leave, ptr %38, align 8, !tbaa !309
  %39 = load ptr, ptr %3, align 8, !tbaa !296
  %40 = getelementptr inbounds nuw %struct._GtkWidgetClass, ptr %39, i32 0, i32 41
  store ptr @_widget_enter_leave, ptr %40, align 8, !tbaa !310
  %41 = load ptr, ptr %2, align 8, !tbaa !32
  %42 = call ptr @g_type_check_class_cast(ptr noundef %41, i64 noundef 80)
  %43 = getelementptr inbounds nuw %struct._GObjectClass, ptr %42, i32 0, i32 6
  store ptr @_widget_finalize, ptr %43, align 8, !tbaa !311
  call void @llvm.lifetime.end.p0(i64 8, ptr %3) #13
  ret void
}

; Function Attrs: nounwind uwtable
define internal void @dt_bh_class_intern_init(ptr noundef %0) #0 {
  %2 = alloca ptr, align 8
  store ptr %0, ptr %2, align 8, !tbaa !32
  %3 = load ptr, ptr %2, align 8, !tbaa !32
  %4 = call ptr @g_type_class_peek_parent(ptr noundef %3)
  store ptr %4, ptr @dt_bh_parent_class, align 8, !tbaa !32
  %5 = load i32, ptr @DtBauhausWidget_private_offset, align 4, !tbaa !13
  %6 = icmp ne i32 %5, 0
  br i1 %6, label %7, label %9

7:                                                ; preds = %1
  %8 = load ptr, ptr %2, align 8, !tbaa !32
  call void @g_type_class_adjust_private_offset(ptr noundef %8, ptr noundef @DtBauhausWidget_private_offset)
  br label %9

9:                                                ; preds = %7, %1
  %10 = load ptr, ptr %2, align 8, !tbaa !32
  call void @dt_bh_class_init(ptr noundef %10)
  ret void
}