; Function Attrs: nounwind uwtable
define internal void @dt_bh_class_intern_init(ptr noundef %0) #0 {
  %2 = tail call ptr @g_type_class_peek_parent(ptr noundef %0) #19
  store ptr %2, ptr @dt_bh_parent_class, align 8, !tbaa !134
  %3 = load i32, ptr @DtBauhausWidget_private_offset, align 4, !tbaa !79
  %.not = icmp eq i32 %3, 0
  br i1 %.not, label %5, label %4

4:                                                ; preds = %1
  tail call void @g_type_class_adjust_private_offset(ptr noundef %0, ptr noundef nonnull @DtBauhausWidget_private_offset) #19
  br label %5

5:                                                ; preds = %4, %1
  %6 = load i64, ptr %0, align 8, !tbaa !201
  %7 = tail call i32 (ptr, i64, i32, i32, ptr, ptr, ptr, i64, i32, ...) @g_signal_new(ptr noundef nonnull @.str.47, i64 noundef %6, i32 noundef 2, i32 noundef 0, ptr noundef null, ptr noundef null, ptr noundef nonnull @g_cclosure_marshal_VOID__VOID, i64 noundef 4, i32 noundef 0) #19
  %8 = load ptr, ptr getelementptr inbounds nuw (i8, ptr @darktable, i64 128), align 8, !tbaa !67
  %9 = getelementptr inbounds nuw i8, ptr %8, i64 280
  store i32 %7, ptr %9, align 8, !tbaa !79
  %10 = load i64, ptr %0, align 8, !tbaa !201
  %11 = tail call i32 (ptr, i64, i32, i32, ptr, ptr, ptr, i64, i32, ...) @g_signal_new(ptr noundef nonnull @.str.44, i64 noundef %10, i32 noundef 2, i32 noundef 0, ptr noundef null, ptr noundef null, ptr noundef nonnull @g_cclosure_marshal_VOID__VOID, i64 noundef 4, i32 noundef 0) #19
  %12 = load ptr, ptr getelementptr inbounds nuw (i8, ptr @darktable, i64 128), align 8, !tbaa !67
  %13 = getelementptr inbounds nuw i8, ptr %12, i64 284
  store i32 %11, ptr %13, align 4, !tbaa !79
  %14 = tail call i64 @gtk_widget_get_type() #20
  %15 = tail call ptr @g_type_check_class_cast(ptr noundef nonnull %0, i64 noundef %14) #19
  %16 = getelementptr inbounds nuw i8, ptr %15, i64 288
  store ptr @_widget_draw, ptr %16, align 8, !tbaa !241
  %17 = getelementptr inbounds nuw i8, ptr %15, i64 400
  store ptr @_widget_scroll, ptr %17, align 8, !tbaa !245
  %18 = getelementptr inbounds nuw i8, ptr %15, i64 432
  store ptr @_widget_key_press, ptr %18, align 8, !tbaa !246
  %19 = getelementptr inbounds nuw i8, ptr %15, i64 384
  store ptr @_widget_button_press, ptr %19, align 8, !tbaa !247
  %20 = getelementptr inbounds nuw i8, ptr %15, i64 392
  store ptr @_widget_button_release, ptr %20, align 8, !tbaa !248
  %21 = getelementptr inbounds nuw i8, ptr %15, i64 408
  store ptr @_widget_motion_notify, ptr %21, align 8, !tbaa !249
  %22 = getelementptr inbounds nuw i8, ptr %15, i64 320
  store ptr @_widget_get_preferred_width, ptr %22, align 8, !tbaa !250
  %23 = getelementptr inbounds nuw i8, ptr %15, i64 304
  store ptr @_widget_get_preferred_height, ptr %23, align 8, !tbaa !251
  %24 = getelementptr inbounds nuw i8, ptr %15, i64 448
  store ptr @_widget_enter_leave, ptr %24, align 8, !tbaa !252
  %25 = getelementptr inbounds nuw i8, ptr %15, i64 456
  store ptr @_widget_enter_leave, ptr %25, align 8, !tbaa !253
  %26 = tail call ptr @g_type_check_class_cast(ptr noundef nonnull %0, i64 noundef 80) #19
  %27 = getelementptr inbounds nuw i8, ptr %26, i64 48
  store ptr @_widget_finalize, ptr %27, align 8, !tbaa !254
  ret void
}